#include <math.h>
#include <stdio.h>
#include <stdlib.h>
#include <string.h>

char a[100][100000];
int main(){
	struct {
		int s;
		char z;
	}b[100][27];
	int n,i,j,k,m,g[100];
	scanf("%d",&n);
	scanf("\n");
	for(i=0;i<n;i++){
		gets(a[i]);	
		b[i][0].z=a[i][0];
		b[i][0].s=1;
		g[i]=1;
		for(j=1;a[i][j]!='\0';j++){
			for(m=0,k=0;k<g[i];k++){
				if(a[i][j]==b[i][k].z)
					b[i][k].s++;
				else m++;
			}
			if(m==g[i]){
				g[i]++;
				b[i][g[i]-1].z=a[i][j];
				b[i][g[i]-1].s=1;
		}}
	}
	for(i=0;i<n;i++){
		for(m=0,j=0;j<g[i];j++){
			if(b[i][j].s==1){
				printf("%c\n",b[i][j].z);
				break;
			}else{
				m++;
			}
			if(m==g[i])
				printf("no\n");
	}}
	return 0;
}