; ModuleID = '37/1139.c'
source_filename = "37/1139.c"
target datalayout = "e-m:e-p270:32:32-p271:32:32-p272:64:64-i64:64-f80:128-n8:16:32:64-S128"
target triple = "x86_64-pc-linux-gnu"

%struct.anon = type { i32, i8 }

@.str = private unnamed_addr constant [3 x i8] c"%d\00", align 1
@.str.1 = private unnamed_addr constant [2 x i8] c"\0A\00", align 1
@a = common dso_local global [100 x [100000 x i8]] zeroinitializer, align 16
@.str.2 = private unnamed_addr constant [4 x i8] c"%c\0A\00", align 1
@.str.3 = private unnamed_addr constant [4 x i8] c"no\0A\00", align 1

; Function Attrs: noinline nounwind uwtable
define dso_local i32 @main() #0 {
  %1 = alloca i32, align 4
  %2 = alloca [100 x [27 x %struct.anon]], align 16
  %3 = alloca i32, align 4
  %4 = alloca i32, align 4
  %5 = alloca i32, align 4
  %6 = alloca i32, align 4
  %7 = alloca i32, align 4
  %8 = alloca [100 x i32], align 16
  store i32 0, i32* %1, align 4
  %9 = call i32 (i8*, ...) @__isoc99_scanf(i8* getelementptr inbounds ([3 x i8], [3 x i8]* @.str, i64 0, i64 0), i32* %3)
  %10 = call i32 (i8*, ...) @__isoc99_scanf(i8* getelementptr inbounds ([2 x i8], [2 x i8]* @.str.1, i64 0, i64 0))
  store i32 0, i32* %4, align 4
  br label %11

11:                                               ; preds = %140, %0
  %12 = load i32, i32* %4, align 4
  %13 = load i32, i32* %3, align 4
  %14 = icmp slt i32 %12, %13
  br i1 %14, label %15, label %143

15:                                               ; preds = %11
  %16 = load i32, i32* %4, align 4
  %17 = sext i32 %16 to i64
  %18 = getelementptr inbounds [100 x [100000 x i8]], [100 x [100000 x i8]]* @a, i64 0, i64 %17
  %19 = getelementptr inbounds [100000 x i8], [100000 x i8]* %18, i64 0, i64 0
  %20 = call i32 (i8*, ...) bitcast (i32 (...)* @gets to i32 (i8*, ...)*)(i8* %19)
  %21 = load i32, i32* %4, align 4
  %22 = sext i32 %21 to i64
  %23 = getelementptr inbounds [100 x [100000 x i8]], [100 x [100000 x i8]]* @a, i64 0, i64 %22
  %24 = getelementptr inbounds [100000 x i8], [100000 x i8]* %23, i64 0, i64 0
  %25 = load i8, i8* %24, align 16
  %26 = load i32, i32* %4, align 4
  %27 = sext i32 %26 to i64
  %28 = getelementptr inbounds [100 x [27 x %struct.anon]], [100 x [27 x %struct.anon]]* %2, i64 0, i64 %27
  %29 = getelementptr inbounds [27 x %struct.anon], [27 x %struct.anon]* %28, i64 0, i64 0
  %30 = getelementptr inbounds %struct.anon, %struct.anon* %29, i32 0, i32 1
  store i8 %25, i8* %30, align 4
  %31 = load i32, i32* %4, align 4
  %32 = sext i32 %31 to i64
  %33 = getelementptr inbounds [100 x [27 x %struct.anon]], [100 x [27 x %struct.anon]]* %2, i64 0, i64 %32
  %34 = getelementptr inbounds [27 x %struct.anon], [27 x %struct.anon]* %33, i64 0, i64 0
  %35 = getelementptr inbounds %struct.anon, %struct.anon* %34, i32 0, i32 0
  store i32 1, i32* %35, align 8
  %36 = load i32, i32* %4, align 4
  %37 = sext i32 %36 to i64
  %38 = getelementptr inbounds [100 x i32], [100 x i32]* %8, i64 0, i64 %37
  store i32 1, i32* %38, align 4
  store i32 1, i32* %5, align 4
  br label %39

39:                                               ; preds = %136, %15
  %40 = load i32, i32* %4, align 4
  %41 = sext i32 %40 to i64
  %42 = getelementptr inbounds [100 x [100000 x i8]], [100 x [100000 x i8]]* @a, i64 0, i64 %41
  %43 = load i32, i32* %5, align 4
  %44 = sext i32 %43 to i64
  %45 = getelementptr inbounds [100000 x i8], [100000 x i8]* %42, i64 0, i64 %44
  %46 = load i8, i8* %45, align 1
  %47 = sext i8 %46 to i32
  %48 = icmp ne i32 %47, 0
  br i1 %48, label %49, label %139

49:                                               ; preds = %39
  store i32 0, i32* %7, align 4
  store i32 0, i32* %6, align 4
  br label %50

50:                                               ; preds = %90, %49
  %51 = load i32, i32* %6, align 4
  %52 = load i32, i32* %4, align 4
  %53 = sext i32 %52 to i64
  %54 = getelementptr inbounds [100 x i32], [100 x i32]* %8, i64 0, i64 %53
  %55 = load i32, i32* %54, align 4
  %56 = icmp slt i32 %51, %55
  br i1 %56, label %57, label %93

57:                                               ; preds = %50
  %58 = load i32, i32* %4, align 4
  %59 = sext i32 %58 to i64
  %60 = getelementptr inbounds [100 x [100000 x i8]], [100 x [100000 x i8]]* @a, i64 0, i64 %59
  %61 = load i32, i32* %5, align 4
  %62 = sext i32 %61 to i64
  %63 = getelementptr inbounds [100000 x i8], [100000 x i8]* %60, i64 0, i64 %62
  %64 = load i8, i8* %63, align 1
  %65 = sext i8 %64 to i32
  %66 = load i32, i32* %4, align 4
  %67 = sext i32 %66 to i64
  %68 = getelementptr inbounds [100 x [27 x %struct.anon]], [100 x [27 x %struct.anon]]* %2, i64 0, i64 %67
  %69 = load i32, i32* %6, align 4
  %70 = sext i32 %69 to i64
  %71 = getelementptr inbounds [27 x %struct.anon], [27 x %struct.anon]* %68, i64 0, i64 %70
  %72 = getelementptr inbounds %struct.anon, %struct.anon* %71, i32 0, i32 1
  %73 = load i8, i8* %72, align 4
  %74 = sext i8 %73 to i32
  %75 = icmp eq i32 %65, %74
  br i1 %75, label %76, label %86

76:                                               ; preds = %57
  %77 = load i32, i32* %4, align 4
  %78 = sext i32 %77 to i64
  %79 = getelementptr inbounds [100 x [27 x %struct.anon]], [100 x [27 x %struct.anon]]* %2, i64 0, i64 %78
  %80 = load i32, i32* %6, align 4
  %81 = sext i32 %80 to i64
  %82 = getelementptr inbounds [27 x %struct.anon], [27 x %struct.anon]* %79, i64 0, i64 %81
  %83 = getelementptr inbounds %struct.anon, %struct.anon* %82, i32 0, i32 0
  %84 = load i32, i32* %83, align 8
  %85 = add nsw i32 %84, 1
  store i32 %85, i32* %83, align 8
  br label %89

86:                                               ; preds = %57
  %87 = load i32, i32* %7, align 4
  %88 = add nsw i32 %87, 1
  store i32 %88, i32* %7, align 4
  br label %89

89:                                               ; preds = %86, %76
  br label %90

90:                                               ; preds = %89
  %91 = load i32, i32* %6, align 4
  %92 = add nsw i32 %91, 1
  store i32 %92, i32* %6, align 4
  br label %50

93:                                               ; preds = %50
  %94 = load i32, i32* %7, align 4
  %95 = load i32, i32* %4, align 4
  %96 = sext i32 %95 to i64
  %97 = getelementptr inbounds [100 x i32], [100 x i32]* %8, i64 0, i64 %96
  %98 = load i32, i32* %97, align 4
  %99 = icmp eq i32 %94, %98
  br i1 %99, label %100, label %135

100:                                              ; preds = %93
  %101 = load i32, i32* %4, align 4
  %102 = sext i32 %101 to i64
  %103 = getelementptr inbounds [100 x i32], [100 x i32]* %8, i64 0, i64 %102
  %104 = load i32, i32* %103, align 4
  %105 = add nsw i32 %104, 1
  store i32 %105, i32* %103, align 4
  %106 = load i32, i32* %4, align 4
  %107 = sext i32 %106 to i64
  %108 = getelementptr inbounds [100 x [100000 x i8]], [100 x [100000 x i8]]* @a, i64 0, i64 %107
  %109 = load i32, i32* %5, align 4
  %110 = sext i32 %109 to i64
  %111 = getelementptr inbounds [100000 x i8], [100000 x i8]* %108, i64 0, i64 %110
  %112 = load i8, i8* %111, align 1
  %113 = load i32, i32* %4, align 4
  %114 = sext i32 %113 to i64
  %115 = getelementptr inbounds [100 x [27 x %struct.anon]], [100 x [27 x %struct.anon]]* %2, i64 0, i64 %114
  %116 = load i32, i32* %4, align 4
  %117 = sext i32 %116 to i64
  %118 = getelementptr inbounds [100 x i32], [100 x i32]* %8, i64 0, i64 %117
  %119 = load i32, i32* %118, align 4
  %120 = sub nsw i32 %119, 1
  %121 = sext i32 %120 to i64
  %122 = getelementptr inbounds [27 x %struct.anon], [27 x %struct.anon]* %115, i64 0, i64 %121
  %123 = getelementptr inbounds %struct.anon, %struct.anon* %122, i32 0, i32 1
  store i8 %112, i8* %123, align 4
  %124 = load i32, i32* %4, align 4
  %125 = sext i32 %124 to i64
  %126 = getelementptr inbounds [100 x [27 x %struct.anon]], [100 x [27 x %struct.anon]]* %2, i64 0, i64 %125
  %127 = load i32, i32* %4, align 4
  %128 = sext i32 %127 to i64
  %129 = getelementptr inbounds [100 x i32], [100 x i32]* %8, i64 0, i64 %128
  %130 = load i32, i32* %129, align 4
  %131 = sub nsw i32 %130, 1
  %132 = sext i32 %131 to i64
  %133 = getelementptr inbounds [27 x %struct.anon], [27 x %struct.anon]* %126, i64 0, i64 %132
  %134 = getelementptr inbounds %struct.anon, %struct.anon* %133, i32 0, i32 0
  store i32 1, i32* %134, align 8
  br label %135

135:                                              ; preds = %100, %93
  br label %136

136:                                              ; preds = %135
  %137 = load i32, i32* %5, align 4
  %138 = add nsw i32 %137, 1
  store i32 %138, i32* %5, align 4
  br label %39

139:                                              ; preds = %39
  br label %140

140:                                              ; preds = %139
  %141 = load i32, i32* %4, align 4
  %142 = add nsw i32 %141, 1
  store i32 %142, i32* %4, align 4
  br label %11

143:                                              ; preds = %11
  store i32 0, i32* %4, align 4
  br label %144

144:                                              ; preds = %194, %143
  %145 = load i32, i32* %4, align 4
  %146 = load i32, i32* %3, align 4
  %147 = icmp slt i32 %145, %146
  br i1 %147, label %148, label %197

148:                                              ; preds = %144
  store i32 0, i32* %7, align 4
  store i32 0, i32* %5, align 4
  br label %149

149:                                              ; preds = %190, %148
  %150 = load i32, i32* %5, align 4
  %151 = load i32, i32* %4, align 4
  %152 = sext i32 %151 to i64
  %153 = getelementptr inbounds [100 x i32], [100 x i32]* %8, i64 0, i64 %152
  %154 = load i32, i32* %153, align 4
  %155 = icmp slt i32 %150, %154
  br i1 %155, label %156, label %193

156:                                              ; preds = %149
  %157 = load i32, i32* %4, align 4
  %158 = sext i32 %157 to i64
  %159 = getelementptr inbounds [100 x [27 x %struct.anon]], [100 x [27 x %struct.anon]]* %2, i64 0, i64 %158
  %160 = load i32, i32* %5, align 4
  %161 = sext i32 %160 to i64
  %162 = getelementptr inbounds [27 x %struct.anon], [27 x %struct.anon]* %159, i64 0, i64 %161
  %163 = getelementptr inbounds %struct.anon, %struct.anon* %162, i32 0, i32 0
  %164 = load i32, i32* %163, align 8
  %165 = icmp eq i32 %164, 1
  br i1 %165, label %166, label %177

166:                                              ; preds = %156
  %167 = load i32, i32* %4, align 4
  %168 = sext i32 %167 to i64
  %169 = getelementptr inbounds [100 x [27 x %struct.anon]], [100 x [27 x %struct.anon]]* %2, i64 0, i64 %168
  %170 = load i32, i32* %5, align 4
  %171 = sext i32 %170 to i64
  %172 = getelementptr inbounds [27 x %struct.anon], [27 x %struct.anon]* %169, i64 0, i64 %171
  %173 = getelementptr inbounds %struct.anon, %struct.anon* %172, i32 0, i32 1
  %174 = load i8, i8* %173, align 4
  %175 = sext i8 %174 to i32
  %176 = call i32 (i8*, ...) @printf(i8* getelementptr inbounds ([4 x i8], [4 x i8]* @.str.2, i64 0, i64 0), i32 %175)
  br label %193

177:                                              ; preds = %156
  %178 = load i32, i32* %7, align 4
  %179 = add nsw i32 %178, 1
  store i32 %179, i32* %7, align 4
  br label %180

180:                                              ; preds = %177
  %181 = load i32, i32* %7, align 4
  %182 = load i32, i32* %4, align 4
  %183 = sext i32 %182 to i64
  %184 = getelementptr inbounds [100 x i32], [100 x i32]* %8, i64 0, i64 %183
  %185 = load i32, i32* %184, align 4
  %186 = icmp eq i32 %181, %185
  br i1 %186, label %187, label %189

187:                                              ; preds = %180
  %188 = call i32 (i8*, ...) @printf(i8* getelementptr inbounds ([4 x i8], [4 x i8]* @.str.3, i64 0, i64 0))
  br label %189

189:                                              ; preds = %187, %180
  br label %190

190:                                              ; preds = %189
  %191 = load i32, i32* %5, align 4
  %192 = add nsw i32 %191, 1
  store i32 %192, i32* %5, align 4
  br label %149

193:                                              ; preds = %166, %149
  br label %194

194:                                              ; preds = %193
  %195 = load i32, i32* %4, align 4
  %196 = add nsw i32 %195, 1
  store i32 %196, i32* %4, align 4
  br label %144

197:                                              ; preds = %144
  ret i32 0
}

declare dso_local i32 @__isoc99_scanf(i8*, ...) #1

declare dso_local i32 @gets(...) #1

declare dso_local i32 @printf(i8*, ...) #1


!llvm.module.flags = !{!0}
!llvm.ident = !{!1}

!0 = !{i32 1, !"wchar_size", i32 4}
!1 = !{!"clang version 10.0.0-4ubuntu1 "}
